target datalayout = "e-m:e-p270:32:32-p271:32:32-p272:64:64-i64:64-i128:128-f80:128-n8:16:32:64-S128"
target triple = "x86_64-unknown-linux-gnu"

%struct.SCSISense = type { i8, i8, i8 }
%struct.SCSIDiskState = type { %struct.SCSIDevice, i32, i8, i8, i8, i16, i64, i64, i32, ptr, ptr, ptr, ptr, ptr, ptr, i8, i8, i16 }
%struct.SCSIDevice = type { %struct.DeviceState, ptr, ptr, i32, %struct.BlockConf, %struct.SCSISense, i8, [252 x i8], i32, %union.anon, i32, i32, i32, i32, i64, i64, i64, i32, i32, i32, i8, i8 }
%struct.DeviceState = type { %struct.Object, ptr, ptr, i8, i8, i64, ptr, i32, i8, ptr, %struct.NamedGPIOListHead, %struct.NamedClockListHead, %struct.BusStateHead, i32, i32, i32, %struct.ResettableState, ptr, %struct.MemReentrancyGuard }
%struct.Object = type { ptr, ptr, ptr, i32, ptr }
%struct.NamedGPIOListHead = type { ptr }
%struct.NamedClockListHead = type { ptr }
%struct.BusStateHead = type { ptr }
%struct.ResettableState = type { i32, i8, i8 }
%struct.MemReentrancyGuard = type { i8 }
%struct.BlockConf = type { ptr, i32, i32, i32, i32, i32, i32, i32, i32, i32, i32, i32, i32, i32, i32, i8, i32, i32, i32, i32 }
%union.anon = type { %struct.QTailQLink }
%struct.QTailQLink = type { ptr, ptr }
%struct.SCSIDiskReq = type { %struct.SCSIRequest, i64, i32, i32, i8, i8, %struct.iovec, %struct.QEMUIOVector, %struct.BlockAcctCookie }
%struct.SCSIRequest = type { ptr, ptr, ptr, i32, i32, i32, i16, i16, ptr, i64, %struct.SCSICommand, %struct.NotifierList, [252 x i8], i32, i8, i8, i8, i8, ptr, ptr, %union.anon.0 }
%struct.SCSICommand = type { [16 x i8], i32, i64, i64, i32 }
%struct.NotifierList = type { %struct.anon }
%struct.anon = type { ptr }
%union.anon.0 = type { %struct.QTailQLink }
%struct.iovec = type { ptr, i64 }
%struct.QEMUIOVector = type { ptr, i32, %union.anon.1 }
%union.anon.1 = type { %struct.anon.2 }
%struct.anon.2 = type { i32, %struct.iovec }
%struct.BlockAcctCookie = type { i64, i64, i32 }

@.str.5 = private unnamed_addr constant [28 x i8] c"../qemu/hw/scsi/scsi-disk.c\00", align 1
@.str.39 = private unnamed_addr constant [28 x i8] c"r->iov.iov_len <= r->buflen\00", align 1
@__PRETTY_FUNCTION__.scsi_disk_load_request = private unnamed_addr constant [55 x i8] c"void scsi_disk_load_request(QEMUFile *, SCSIRequest *)\00", align 1

; Function Attrs: nounwind sspstrong uwtable
define internal void @scsi_init_iovec(ptr noundef %r, i64 noundef %size) #0 {
entry:
  %r.addr = alloca ptr, align 8
  %size.addr = alloca i64, align 8
  %s = alloca ptr, align 8
  %tmp = alloca ptr, align 8
  %__mptr = alloca ptr, align 8
  %tmp1 = alloca ptr, align 8
  %_a5 = alloca i64, align 8
  %_b6 = alloca i64, align 8
  %tmp9 = alloca i64, align 8
  store ptr %r, ptr %r.addr, align 8
  store i64 %size, ptr %size.addr, align 8
  %0 = load ptr, ptr %r.addr, align 8
  %req = getelementptr inbounds %struct.SCSIDiskReq, ptr %0, i32 0, i32 0
  %dev = getelementptr inbounds %struct.SCSIRequest, ptr %req, i32 0, i32 1
  %1 = load ptr, ptr %dev, align 8
  store ptr %1, ptr %__mptr, align 8
  %2 = load ptr, ptr %__mptr, align 8
  %add.ptr = getelementptr i8, ptr %2, i64 0
  store ptr %add.ptr, ptr %tmp1, align 8
  %3 = load ptr, ptr %tmp1, align 8
  store ptr %3, ptr %tmp, align 8
  %4 = load ptr, ptr %tmp, align 8
  store ptr %4, ptr %s, align 8
  %5 = load ptr, ptr %r.addr, align 8
  %iov = getelementptr inbounds %struct.SCSIDiskReq, ptr %5, i32 0, i32 6
  %iov_base = getelementptr inbounds %struct.iovec, ptr %iov, i32 0, i32 0
  %6 = load ptr, ptr %iov_base, align 8
  %tobool = icmp ne ptr %6, null
  br i1 %tobool, label %if.end, label %if.then

if.then:                                          ; preds = %entry
  %7 = load i64, ptr %size.addr, align 8
  %conv = trunc i64 %7 to i32
  %8 = load ptr, ptr %r.addr, align 8
  %buflen = getelementptr inbounds %struct.SCSIDiskReq, ptr %8, i32 0, i32 3
  store i32 %conv, ptr %buflen, align 4
  %9 = load ptr, ptr %s, align 8
  %qdev = getelementptr inbounds %struct.SCSIDiskState, ptr %9, i32 0, i32 0
  %conf = getelementptr inbounds %struct.SCSIDevice, ptr %qdev, i32 0, i32 4
  %blk = getelementptr inbounds %struct.BlockConf, ptr %conf, i32 0, i32 0
  %10 = load ptr, ptr %blk, align 8
  %11 = load ptr, ptr %r.addr, align 8
  %buflen2 = getelementptr inbounds %struct.SCSIDiskReq, ptr %11, i32 0, i32 3
  %12 = load i32, ptr %buflen2, align 4
  %conv3 = zext i32 %12 to i64
  %call = call ptr @blk_blockalign(ptr noundef %10, i64 noundef %conv3)
  %13 = load ptr, ptr %r.addr, align 8
  %iov4 = getelementptr inbounds %struct.SCSIDiskReq, ptr %13, i32 0, i32 6
  %iov_base5 = getelementptr inbounds %struct.iovec, ptr %iov4, i32 0, i32 0
  store ptr %call, ptr %iov_base5, align 8
  br label %if.end

if.end:                                           ; preds = %if.then, %entry
  %14 = load ptr, ptr %r.addr, align 8
  %sector_count = getelementptr inbounds %struct.SCSIDiskReq, ptr %14, i32 0, i32 2
  %15 = load i32, ptr %sector_count, align 8
  %conv6 = zext i32 %15 to i64
  %mul = mul i64 %conv6, 512
  store i64 %mul, ptr %_a5, align 8
  %16 = load ptr, ptr %r.addr, align 8
  %buflen7 = getelementptr inbounds %struct.SCSIDiskReq, ptr %16, i32 0, i32 3
  %17 = load i32, ptr %buflen7, align 4
  %conv8 = zext i32 %17 to i64
  store i64 %conv8, ptr %_b6, align 8
  %18 = load i64, ptr %_a5, align 8
  %19 = load i64, ptr %_b6, align 8
  %cmp = icmp ult i64 %18, %19
  br i1 %cmp, label %cond.true, label %cond.false

cond.true:                                        ; preds = %if.end
  %20 = load i64, ptr %_a5, align 8
  br label %cond.end

cond.false:                                       ; preds = %if.end
  %21 = load i64, ptr %_b6, align 8
  br label %cond.end

cond.end:                                         ; preds = %cond.false, %cond.true
  %cond = phi i64 [ %20, %cond.true ], [ %21, %cond.false ]
  store i64 %cond, ptr %tmp9, align 8
  %22 = load i64, ptr %tmp9, align 8
  %23 = load ptr, ptr %r.addr, align 8
  %iov11 = getelementptr inbounds %struct.SCSIDiskReq, ptr %23, i32 0, i32 6
  %iov_len = getelementptr inbounds %struct.iovec, ptr %iov11, i32 0, i32 1
  store i64 %22, ptr %iov_len, align 8
  %24 = load ptr, ptr %r.addr, align 8
  %qiov = getelementptr inbounds %struct.SCSIDiskReq, ptr %24, i32 0, i32 7
  %25 = load ptr, ptr %r.addr, align 8
  %iov12 = getelementptr inbounds %struct.SCSIDiskReq, ptr %25, i32 0, i32 6
  call void @qemu_iovec_init_external(ptr noundef %qiov, ptr noundef %iov12, i32 noundef 1)
  ret void
}

; Function Attrs: nounwind sspstrong uwtable
define internal void @qemu_get_be32s(ptr noundef %f, ptr noundef %pv) #0 {
entry:
  %f.addr = alloca ptr, align 8
  %pv.addr = alloca ptr, align 8
  store ptr %f, ptr %f.addr, align 8
  store ptr %pv, ptr %pv.addr, align 8
  %0 = load ptr, ptr %f.addr, align 8
  %call = call i32 @qemu_get_be32(ptr noundef %0)
  %1 = load ptr, ptr %pv.addr, align 8
  store i32 %call, ptr %1, align 4
  ret void
}

; Function Attrs: nounwind sspstrong uwtable
define internal void @qemu_get_be64s(ptr noundef %f, ptr noundef %pv) #0 {
entry:
  %f.addr = alloca ptr, align 8
  %pv.addr = alloca ptr, align 8
  store ptr %f, ptr %f.addr, align 8
  store ptr %pv, ptr %pv.addr, align 8
  %0 = load ptr, ptr %f.addr, align 8
  %call = call i64 @qemu_get_be64(ptr noundef %0)
  %1 = load ptr, ptr %pv.addr, align 8
  store i64 %call, ptr %1, align 8
  ret void
}

; Function Attrs: nounwind sspstrong uwtable
define internal void @scsi_disk_load_request(ptr noundef %f, ptr noundef %req) #0 {
entry:
  %f.addr = alloca ptr, align 8
  %req.addr = alloca ptr, align 8
  %r = alloca ptr, align 8
  %tmp = alloca ptr, align 8
  %__mptr = alloca ptr, align 8
  %tmp1 = alloca ptr, align 8
  %len = alloca i32, align 4
  store ptr %f, ptr %f.addr, align 8
  store ptr %req, ptr %req.addr, align 8
  %0 = load ptr, ptr %req.addr, align 8
  store ptr %0, ptr %__mptr, align 8
  %1 = load ptr, ptr %__mptr, align 8
  %add.ptr = getelementptr i8, ptr %1, i64 0
  store ptr %add.ptr, ptr %tmp1, align 8
  %2 = load ptr, ptr %tmp1, align 8
  store ptr %2, ptr %tmp, align 8
  %3 = load ptr, ptr %tmp, align 8
  store ptr %3, ptr %r, align 8
  %4 = load ptr, ptr %f.addr, align 8
  %5 = load ptr, ptr %r, align 8
  %sector = getelementptr inbounds %struct.SCSIDiskReq, ptr %5, i32 0, i32 1
  call void @qemu_get_be64s(ptr noundef %4, ptr noundef %sector)
  %6 = load ptr, ptr %f.addr, align 8
  %7 = load ptr, ptr %r, align 8
  %sector_count = getelementptr inbounds %struct.SCSIDiskReq, ptr %7, i32 0, i32 2
  call void @qemu_get_be32s(ptr noundef %6, ptr noundef %sector_count)
  %8 = load ptr, ptr %f.addr, align 8
  %9 = load ptr, ptr %r, align 8
  %buflen = getelementptr inbounds %struct.SCSIDiskReq, ptr %9, i32 0, i32 3
  call void @qemu_get_be32s(ptr noundef %8, ptr noundef %buflen)
  %10 = load ptr, ptr %r, align 8
  %buflen2 = getelementptr inbounds %struct.SCSIDiskReq, ptr %10, i32 0, i32 3
  %11 = load i32, ptr %buflen2, align 4
  %tobool = icmp ne i32 %11, 0
  br i1 %tobool, label %if.then, label %if.end29

if.then:                                          ; preds = %entry
  %12 = load ptr, ptr %r, align 8
  %13 = load ptr, ptr %r, align 8
  %buflen3 = getelementptr inbounds %struct.SCSIDiskReq, ptr %13, i32 0, i32 3
  %14 = load i32, ptr %buflen3, align 4
  %conv = zext i32 %14 to i64
  call void @scsi_init_iovec(ptr noundef %12, i64 noundef %conv)
  %15 = load ptr, ptr %r, align 8
  %req4 = getelementptr inbounds %struct.SCSIDiskReq, ptr %15, i32 0, i32 0
  %cmd = getelementptr inbounds %struct.SCSIRequest, ptr %req4, i32 0, i32 10
  %mode = getelementptr inbounds %struct.SCSICommand, ptr %cmd, i32 0, i32 4
  %16 = load i32, ptr %mode, align 8
  %cmp = icmp eq i32 %16, 2
  br i1 %cmp, label %if.then6, label %if.else

if.then6:                                         ; preds = %if.then
  %17 = load ptr, ptr %f.addr, align 8
  %18 = load ptr, ptr %r, align 8
  %iov = getelementptr inbounds %struct.SCSIDiskReq, ptr %18, i32 0, i32 6
  %iov_base = getelementptr inbounds %struct.iovec, ptr %iov, i32 0, i32 0
  %19 = load ptr, ptr %iov_base, align 8
  %20 = load ptr, ptr %r, align 8
  %iov7 = getelementptr inbounds %struct.SCSIDiskReq, ptr %20, i32 0, i32 6
  %iov_len = getelementptr inbounds %struct.iovec, ptr %iov7, i32 0, i32 1
  %21 = load i64, ptr %iov_len, align 8
  %call = call i64 @qemu_get_buffer(ptr noundef %17, ptr noundef %19, i64 noundef %21)
  br label %if.end28

if.else:                                          ; preds = %if.then
  %22 = load ptr, ptr %r, align 8
  %req8 = getelementptr inbounds %struct.SCSIDiskReq, ptr %22, i32 0, i32 0
  %retry = getelementptr inbounds %struct.SCSIRequest, ptr %req8, i32 0, i32 16
  %23 = load i8, ptr %retry, align 2
  %tobool9 = trunc i8 %23 to i1
  br i1 %tobool9, label %if.end27, label %if.then10

if.then10:                                        ; preds = %if.else
  %24 = load ptr, ptr %f.addr, align 8
  call void @qemu_get_be32s(ptr noundef %24, ptr noundef %len)
  %25 = load i32, ptr %len, align 4
  %conv11 = zext i32 %25 to i64
  %26 = load ptr, ptr %r, align 8
  %iov12 = getelementptr inbounds %struct.SCSIDiskReq, ptr %26, i32 0, i32 6
  %iov_len13 = getelementptr inbounds %struct.iovec, ptr %iov12, i32 0, i32 1
  store i64 %conv11, ptr %iov_len13, align 8
  %27 = load ptr, ptr %r, align 8
  %iov14 = getelementptr inbounds %struct.SCSIDiskReq, ptr %27, i32 0, i32 6
  %iov_len15 = getelementptr inbounds %struct.iovec, ptr %iov14, i32 0, i32 1
  %28 = load i64, ptr %iov_len15, align 8
  %29 = load ptr, ptr %r, align 8
  %buflen16 = getelementptr inbounds %struct.SCSIDiskReq, ptr %29, i32 0, i32 3
  %30 = load i32, ptr %buflen16, align 4
  %conv17 = zext i32 %30 to i64
  %cmp18 = icmp ule i64 %28, %conv17
  br i1 %cmp18, label %if.then20, label %if.else21

if.then20:                                        ; preds = %if.then10
  br label %if.end

if.else21:                                        ; preds = %if.then10
  call void @__assert_fail(ptr noundef @.str.39, ptr noundef @.str.5, i32 noundef 177, ptr noundef @__PRETTY_FUNCTION__.scsi_disk_load_request) #11
  unreachable

if.end:                                           ; preds = %if.then20
  %31 = load ptr, ptr %f.addr, align 8
  %32 = load ptr, ptr %r, align 8
  %iov22 = getelementptr inbounds %struct.SCSIDiskReq, ptr %32, i32 0, i32 6
  %iov_base23 = getelementptr inbounds %struct.iovec, ptr %iov22, i32 0, i32 0
  %33 = load ptr, ptr %iov_base23, align 8
  %34 = load ptr, ptr %r, align 8
  %iov24 = getelementptr inbounds %struct.SCSIDiskReq, ptr %34, i32 0, i32 6
  %iov_len25 = getelementptr inbounds %struct.iovec, ptr %iov24, i32 0, i32 1
  %35 = load i64, ptr %iov_len25, align 8
  %call26 = call i64 @qemu_get_buffer(ptr noundef %31, ptr noundef %33, i64 noundef %35)
  br label %if.end27

if.end27:                                         ; preds = %if.end, %if.else
  br label %if.end28

if.end28:                                         ; preds = %if.end27, %if.then6
  br label %if.end29

if.end29:                                         ; preds = %if.end28, %entry
  %36 = load ptr, ptr %r, align 8
  %qiov = getelementptr inbounds %struct.SCSIDiskReq, ptr %36, i32 0, i32 7
  %37 = load ptr, ptr %r, align 8
  %iov30 = getelementptr inbounds %struct.SCSIDiskReq, ptr %37, i32 0, i32 6
  call void @qemu_iovec_init_external(ptr noundef %qiov, ptr noundef %iov30, i32 noundef 1)
  ret void
}