; Function Attrs: nounwind sspstrong uwtable
define internal void @scsi_disk_load_request(ptr noundef %f, ptr noundef initializes((408, 424)) %req) #0 {
entry:
  %sector = getelementptr inbounds nuw i8, ptr %req, i64 408
  %call.i = tail call i64 @qemu_get_be64(ptr noundef %f) #18
  store i64 %call.i, ptr %sector, align 8
  %sector_count = getelementptr inbounds nuw i8, ptr %req, i64 416
  %call.i22 = tail call i32 @qemu_get_be32(ptr noundef %f) #18
  store i32 %call.i22, ptr %sector_count, align 4
  %buflen = getelementptr inbounds nuw i8, ptr %req, i64 420
  %call.i23 = tail call i32 @qemu_get_be32(ptr noundef %f) #18
  store i32 %call.i23, ptr %buflen, align 4
  %tobool.not = icmp eq i32 %call.i23, 0
  br i1 %tobool.not, label %if.end29, label %if.then

if.then:                                          ; preds = %entry
  %iov.i = getelementptr inbounds nuw i8, ptr %req, i64 432
  %0 = load ptr, ptr %iov.i, align 8
  %tobool.not.i = icmp eq ptr %0, null
  br i1 %tobool.not.i, label %if.then.i, label %scsi_init_iovec.exit

if.then.i:                                        ; preds = %if.then
  %conv = zext i32 %call.i23 to i64
  %dev.i = getelementptr inbounds nuw i8, ptr %req, i64 8
  %1 = load ptr, ptr %dev.i, align 8
  %conf.i = getelementptr inbounds nuw i8, ptr %1, i64 184
  %2 = load ptr, ptr %conf.i, align 8
  %call.i24 = tail call ptr @blk_blockalign(ptr noundef %2, i64 noundef range(i64 1, 4294967296) %conv) #18
  store ptr %call.i24, ptr %iov.i, align 8
  %.pre = load i32, ptr %buflen, align 4
  br label %scsi_init_iovec.exit

scsi_init_iovec.exit:                             ; preds = %if.then, %if.then.i
  %3 = phi i32 [ %call.i23, %if.then ], [ %.pre, %if.then.i ]
  %4 = load i32, ptr %sector_count, align 8
  %conv6.i = zext i32 %4 to i64
  %mul.i = shl nuw nsw i64 %conv6.i, 9
  %conv8.i = zext i32 %3 to i64
  %cond.i = tail call i64 @llvm.umin.i64(i64 %mul.i, i64 %conv8.i)
  %iov_len.i = getelementptr inbounds nuw i8, ptr %req, i64 440
  store i64 %cond.i, ptr %iov_len.i, align 8
  %qiov.i = getelementptr inbounds nuw i8, ptr %req, i64 448
  tail call void @qemu_iovec_init_external(ptr noundef nonnull %qiov.i, ptr noundef nonnull %iov.i, i32 noundef 1) #18
  %mode = getelementptr inbounds nuw i8, ptr %req, i64 96
  %5 = load i32, ptr %mode, align 8
  %cmp = icmp eq i32 %5, 2
  br i1 %cmp, label %if.then6, label %if.else

if.then6:                                         ; preds = %scsi_init_iovec.exit
  %6 = load ptr, ptr %iov.i, align 8
  %7 = load i64, ptr %iov_len.i, align 8
  %call = tail call i64 @qemu_get_buffer(ptr noundef %f, ptr noundef %6, i64 noundef %7) #18
  br label %if.end29

if.else:                                          ; preds = %scsi_init_iovec.exit
  %retry = getelementptr inbounds nuw i8, ptr %req, i64 370
  %8 = load i8, ptr %retry, align 2
  %tobool9 = trunc i8 %8 to i1
  br i1 %tobool9, label %if.end29, label %if.then10

if.then10:                                        ; preds = %if.else
  %call.i25 = tail call i32 @qemu_get_be32(ptr noundef %f) #18
  %conv11 = zext i32 %call.i25 to i64
  store i64 %conv11, ptr %iov_len.i, align 8
  %9 = load i32, ptr %buflen, align 4
  %cmp18.not = icmp ugt i32 %call.i25, %9
  br i1 %cmp18.not, label %if.else21, label %if.end

if.else21:                                        ; preds = %if.then10
  tail call void @__assert_fail(ptr noundef nonnull @.str.39, ptr noundef nonnull @.str.5, i32 noundef 177, ptr noundef nonnull @__PRETTY_FUNCTION__.scsi_disk_load_request) #19
  unreachable

if.end:                                           ; preds = %if.then10
  %10 = load ptr, ptr %iov.i, align 8
  %call26 = tail call i64 @qemu_get_buffer(ptr noundef %f, ptr noundef %10, i64 noundef %conv11) #18
  br label %if.end29

if.end29:                                         ; preds = %if.then6, %if.end, %if.else, %entry
  %qiov = getelementptr inbounds nuw i8, ptr %req, i64 448
  %iov30 = getelementptr inbounds nuw i8, ptr %req, i64 432
  tail call void @qemu_iovec_init_external(ptr noundef nonnull %qiov, ptr noundef nonnull %iov30, i32 noundef 1) #18
  ret void
}